; Function Attrs: mustprogress uwtable
define void @_ZNK32pxrInternal_v0_24__pxrReserved__9GfLineSeg16FindClosestPointERKNS_7GfVec3dEPd(ptr dead_on_unwind noalias nocapture writable writeonly sret(%"class.pxrInternal_v0_24__pxrReserved__::GfVec3d") align 8 %0, ptr noundef nonnull align 8 dereferenceable(56) %1, ptr noundef nonnull align 8 dereferenceable(24) %2, ptr noundef writeonly %3) local_unnamed_addr #0 align 2 {
  %5 = alloca double, align 8
  %6 = alloca %"class.pxrInternal_v0_24__pxrReserved__::GfVec3d", align 8
  %7 = getelementptr inbounds nuw i8, ptr %1, i64 48
  %8 = load double, ptr %7, align 8
  %9 = fcmp oeq double %8, 0.000000e+00
  br i1 %9, label %16, label %10

10:                                               ; preds = %4
  call void @_ZNK32pxrInternal_v0_24__pxrReserved__6GfLine16FindClosestPointERKNS_7GfVec3dEPd(ptr dead_on_unwind nonnull writable sret(%"class.pxrInternal_v0_24__pxrReserved__::GfVec3d") align 8 %6, ptr noundef nonnull align 8 dereferenceable(48) %1, ptr noundef nonnull align 8 dereferenceable(24) %2, ptr noundef nonnull %5)
  %11 = load double, ptr %5, align 8
  %12 = load double, ptr %7, align 8
  %13 = fdiv double %11, %12
  %14 = fcmp olt double %13, 0.000000e+00
  %15 = fcmp ogt double %13, 1.000000e+00
  %..i = select i1 %15, double 1.000000e+00, double %13
  %.0.i = select i1 %14, double 0.000000e+00, double %..i
  br label %16

16:                                               ; preds = %4, %10
  %17 = phi double [ %12, %10 ], [ %8, %4 ]
  %storemerge = phi double [ %.0.i, %10 ], [ 0.000000e+00, %4 ]
  %.not = icmp eq ptr %3, null
  br i1 %.not, label %19, label %18

18:                                               ; preds = %16
  store double %storemerge, ptr %3, align 8
  %.pre = load double, ptr %7, align 8, !noalias !4
  br label %19

19:                                               ; preds = %18, %16
  %20 = phi double [ %.pre, %18 ], [ %17, %16 ]
  call void @llvm.experimental.noalias.scope.decl(metadata !4)
  %21 = fmul double %storemerge, %20
  call void @llvm.experimental.noalias.scope.decl(metadata !7)
  %22 = getelementptr inbounds nuw i8, ptr %1, i64 24
  %.sroa.0.0.copyload.i.i.i = load double, ptr %22, align 8, !noalias !10
  %.sroa.4.0..sroa_idx.i.i.i = getelementptr inbounds i8, ptr %1, i64 32
  %.sroa.4.0.copyload.i.i.i = load double, ptr %.sroa.4.0..sroa_idx.i.i.i, align 8, !noalias !10
  %.sroa.6.0..sroa_idx.i.i.i = getelementptr inbounds i8, ptr %1, i64 40
  %.sroa.6.0.copyload.i.i.i = load double, ptr %.sroa.6.0..sroa_idx.i.i.i, align 8, !noalias !10
  %23 = fmul double %21, %.sroa.0.0.copyload.i.i.i
  %24 = fmul double %21, %.sroa.4.0.copyload.i.i.i
  %25 = fmul double %21, %.sroa.6.0.copyload.i.i.i
  call void @llvm.experimental.noalias.scope.decl(metadata !13)
  %.sroa.0.0.copyload.i2.i.i = load double, ptr %1, align 8, !noalias !16
  %.sroa.4.0..sroa_idx.i3.i.i = getelementptr inbounds i8, ptr %1, i64 8
  %.sroa.4.0.copyload.i4.i.i = load double, ptr %.sroa.4.0..sroa_idx.i3.i.i, align 8, !noalias !16
  %.sroa.6.0..sroa_idx.i5.i.i = getelementptr inbounds i8, ptr %1, i64 16
  %.sroa.6.0.copyload.i6.i.i = load double, ptr %.sroa.6.0..sroa_idx.i5.i.i, align 8, !noalias !16
  %26 = fadd double %23, %.sroa.0.0.copyload.i2.i.i
  %27 = fadd double %24, %.sroa.4.0.copyload.i4.i.i
  %28 = fadd double %25, %.sroa.6.0.copyload.i6.i.i
  store double %26, ptr %0, align 8, !alias.scope !16
  %.sroa.4.0..sroa_idx3.i7.i.i = getelementptr inbounds i8, ptr %0, i64 8
  store double %27, ptr %.sroa.4.0..sroa_idx3.i7.i.i, align 8, !alias.scope !16
  %.sroa.6.0..sroa_idx5.i8.i.i = getelementptr inbounds i8, ptr %0, i64 16
  store double %28, ptr %.sroa.6.0..sroa_idx5.i8.i.i, align 8, !alias.scope !16
  ret void
}